target datalayout = "e-m:e-p270:32:32-p271:32:32-p272:64:64-i64:64-i128:128-f80:128-n8:16:32:64-S128"
target triple = "x86_64-pc-linux-gnu"

%struct.PJ_LP = type { double, double }
%struct.PJ_XY = type { double, double }
%union.PJ_COORD = type { [4 x double] }
%struct.PJ_LPZ = type { double, double, double }
%struct.PJ_XYZ = type { double, double, double }
%struct.PJconsts = type { ptr, ptr, ptr, ptr, ptr, ptr, ptr, ptr, ptr, ptr, ptr, ptr, i32, ptr, ptr, ptr, ptr, ptr, ptr, ptr, ptr, double, double, double, double, double, double, double, double, double, double, double, double, double, double, double, double, double, double, double, double, double, double, i32, i32, i32, i32, i32, i32, i32, i32, i32, i32, i32, ptr, ptr, ptr, ptr, ptr, ptr, double, double, double, double, double, double, double, double, double, double, double, i32, [7 x double], i32, ptr, ptr, double, double, i32, [4 x i8], %"class.std::shared_ptr", i8, double, i8, %"class.std::__cxx11::basic_string", %"class.std::__cxx11::basic_string", %"class.std::__cxx11::basic_string", i8, %"class.std::vector", i32, %"class.std::vector.3", i32, i8, i8, i8, ptr }
%"class.std::shared_ptr" = type { %"class.std::__shared_ptr" }
%"class.std::__shared_ptr" = type { ptr, %"class.std::__shared_count" }
%"class.std::__shared_count" = type { ptr }
%"class.std::__cxx11::basic_string" = type { %"struct.std::__cxx11::basic_string<char>::_Alloc_hider", i64, %union.anon }
%"struct.std::__cxx11::basic_string<char>::_Alloc_hider" = type { ptr }
%union.anon = type { i64, [8 x i8] }
%"class.std::vector" = type { %"struct.std::_Vector_base" }
%"struct.std::_Vector_base" = type { %"struct.std::_Vector_base<osgeo::proj::operation::GridDescription, std::allocator<osgeo::proj::operation::GridDescription>>::_Vector_impl" }
%"struct.std::_Vector_base<osgeo::proj::operation::GridDescription, std::allocator<osgeo::proj::operation::GridDescription>>::_Vector_impl" = type { %"struct.std::_Vector_base<osgeo::proj::operation::GridDescription, std::allocator<osgeo::proj::operation::GridDescription>>::_Vector_impl_data" }
%"struct.std::_Vector_base<osgeo::proj::operation::GridDescription, std::allocator<osgeo::proj::operation::GridDescription>>::_Vector_impl_data" = type { ptr, ptr, ptr }
%"class.std::vector.3" = type { %"struct.std::_Vector_base.4" }
%"struct.std::_Vector_base.4" = type { %"struct.std::_Vector_base<PJCoordOperation, std::allocator<PJCoordOperation>>::_Vector_impl" }
%"struct.std::_Vector_base<PJCoordOperation, std::allocator<PJCoordOperation>>::_Vector_impl" = type { %"struct.std::_Vector_base<PJCoordOperation, std::allocator<PJCoordOperation>>::_Vector_impl_data" }
%"struct.std::_Vector_base<PJCoordOperation, std::allocator<PJCoordOperation>>::_Vector_impl_data" = type { ptr, ptr, ptr }
%struct.pj_ctx = type <{ %"class.std::__cxx11::basic_string", i32, i32, i8, i8, [6 x i8], ptr, ptr, ptr, i32, i8, [3 x i8], i32, [4 x i8], %"class.std::__cxx11::basic_string", %"class.std::vector.8", ptr, ptr, ptr, %"class.std::map", i8, [7 x i8], %struct.projFileApiCallbackAndData, %"class.std::__cxx11::basic_string", %"class.std::__cxx11::basic_string", i8, [7 x i8], %"class.std::__cxx11::basic_string", %struct.projNetworkCallbacksAndData, %"class.std::__cxx11::basic_string", i8, [7 x i8], %struct.projGridChunkCache, i32, i32, i32, [4 x i8] }>
%"class.std::vector.8" = type { %"struct.std::_Vector_base.9" }
%"struct.std::_Vector_base.9" = type { %"struct.std::_Vector_base<std::__cxx11::basic_string<char>, std::allocator<std::__cxx11::basic_string<char>>>::_Vector_impl" }
%"struct.std::_Vector_base<std::__cxx11::basic_string<char>, std::allocator<std::__cxx11::basic_string<char>>>::_Vector_impl" = type { %"struct.std::_Vector_base<std::__cxx11::basic_string<char>, std::allocator<std::__cxx11::basic_string<char>>>::_Vector_impl_data" }
%"struct.std::_Vector_base<std::__cxx11::basic_string<char>, std::allocator<std::__cxx11::basic_string<char>>>::_Vector_impl_data" = type { ptr, ptr, ptr }
%"class.std::map" = type { %"class.std::_Rb_tree" }
%"class.std::_Rb_tree" = type { %"struct.std::_Rb_tree<std::__cxx11::basic_string<char>, std::pair<const std::__cxx11::basic_string<char>, std::__cxx11::basic_string<char>>, std::_Select1st<std::pair<const std::__cxx11::basic_string<char>, std::__cxx11::basic_string<char>>>, std::less<std::__cxx11::basic_string<char>>>::_Rb_tree_impl" }
%"struct.std::_Rb_tree<std::__cxx11::basic_string<char>, std::pair<const std::__cxx11::basic_string<char>, std::__cxx11::basic_string<char>>, std::_Select1st<std::pair<const std::__cxx11::basic_string<char>, std::__cxx11::basic_string<char>>>, std::less<std::__cxx11::basic_string<char>>>::_Rb_tree_impl" = type { [8 x i8], %"struct.std::_Rb_tree_header" }
%"struct.std::_Rb_tree_header" = type { %"struct.std::_Rb_tree_node_base", i64 }
%"struct.std::_Rb_tree_node_base" = type { i32, ptr, ptr, ptr }
%struct.projFileApiCallbackAndData = type { ptr, ptr, ptr, ptr, ptr, ptr, ptr, ptr, ptr, ptr, ptr }
%struct.projNetworkCallbacksAndData = type { i8, ptr, ptr, ptr, ptr, ptr }
%struct.projGridChunkCache = type <{ i8, [7 x i8], %"class.std::__cxx11::basic_string", i64, i32, [4 x i8] }>

; Function Attrs: inlinehint mustprogress uwtable
define internal void @_ZL14error_or_coordP8PJconsts8PJ_COORDi(ptr dead_on_unwind noalias writable sret(%union.PJ_COORD) align 8 %0, ptr noundef %1, ptr noundef byval(%union.PJ_COORD) align 8 %2, i32 noundef %3) #5 {
  %5 = alloca ptr, align 8
  %6 = alloca i32, align 4
  store ptr %1, ptr %5, align 8, !tbaa !3
  store i32 %3, ptr %6, align 4, !tbaa !63
  %7 = load ptr, ptr %5, align 8, !tbaa !3
  %8 = getelementptr inbounds nuw %struct.PJconsts, ptr %7, i32 0, i32 0
  %9 = load ptr, ptr %8, align 8, !tbaa !11
  %10 = getelementptr inbounds nuw %struct.pj_ctx, ptr %9, i32 0, i32 1
  %11 = load i32, ptr %10, align 8, !tbaa !39
  %12 = icmp ne i32 %11, 0
  br i1 %12, label %13, label %14

13:                                               ; preds = %4
  call void @_Z16proj_coord_errorv(ptr dead_on_unwind writable sret(%union.PJ_COORD) align 8 %0)
  br label %20

14:                                               ; preds = %4
  %15 = load i32, ptr %6, align 4, !tbaa !63
  %16 = load ptr, ptr %5, align 8, !tbaa !3
  %17 = getelementptr inbounds nuw %struct.PJconsts, ptr %16, i32 0, i32 0
  %18 = load ptr, ptr %17, align 8, !tbaa !11
  %19 = getelementptr inbounds nuw %struct.pj_ctx, ptr %18, i32 0, i32 1
  store i32 %15, ptr %19, align 8, !tbaa !39
  call void @llvm.memcpy.p0.p0.i64(ptr align 8 %0, ptr align 8 %2, i64 32, i1 false), !tbaa.struct !71
  br label %20

20:                                               ; preds = %14, %13
  ret void
}

; Function Attrs: mustprogress uwtable
define { double, double } @_Z6pj_inv5PJ_XYP8PJconsts(double %0, double %1, ptr noundef %2) #0 {
  %4 = alloca %struct.PJ_LP, align 8
  %5 = alloca %struct.PJ_XY, align 8
  %6 = alloca ptr, align 8
  %7 = alloca %union.PJ_COORD, align 8
  %8 = alloca i32, align 4
  %9 = alloca %union.PJ_COORD, align 8
  %10 = alloca i32, align 4
  %11 = alloca %struct.PJ_LP, align 8
  %12 = alloca %struct.PJ_XY, align 8
  %13 = alloca %struct.PJ_LPZ, align 8
  %14 = alloca %struct.PJ_XYZ, align 8
  %15 = alloca %union.PJ_COORD, align 8
  %16 = alloca %union.PJ_COORD, align 8
  %17 = alloca %union.PJ_COORD, align 8
  %18 = alloca %union.PJ_COORD, align 8
  %19 = getelementptr inbounds nuw { double, double }, ptr %5, i32 0, i32 0
  store double %0, ptr %19, align 8
  %20 = getelementptr inbounds nuw { double, double }, ptr %5, i32 0, i32 1
  store double %1, ptr %20, align 8
  store ptr %2, ptr %6, align 8, !tbaa !3
  call void @llvm.lifetime.start.p0(i64 32, ptr %7) #7
  call void @llvm.memset.p0.i64(ptr align 8 %7, i8 0, i64 32, i1 false)
  call void @llvm.memcpy.p0.p0.i64(ptr align 8 %7, ptr align 8 %5, i64 16, i1 false), !tbaa.struct !8
  call void @llvm.lifetime.start.p0(i64 4, ptr %8) #7
  %21 = load ptr, ptr %6, align 8, !tbaa !3
  %22 = getelementptr inbounds nuw %struct.PJconsts, ptr %21, i32 0, i32 0
  %23 = load ptr, ptr %22, align 8, !tbaa !11
  %24 = getelementptr inbounds nuw %struct.pj_ctx, ptr %23, i32 0, i32 1
  %25 = load i32, ptr %24, align 8, !tbaa !39
  store i32 %25, ptr %8, align 4, !tbaa !63
  %26 = load ptr, ptr %6, align 8, !tbaa !3
  %27 = getelementptr inbounds nuw %struct.PJconsts, ptr %26, i32 0, i32 0
  %28 = load ptr, ptr %27, align 8, !tbaa !11
  %29 = getelementptr inbounds nuw %struct.pj_ctx, ptr %28, i32 0, i32 1
  store i32 0, ptr %29, align 8, !tbaa !39
  %30 = load ptr, ptr %6, align 8, !tbaa !3
  %31 = getelementptr inbounds nuw %struct.PJconsts, ptr %30, i32 0, i32 50
  %32 = load i32, ptr %31, align 4, !tbaa !64
  %33 = icmp ne i32 %32, 0
  br i1 %33, label %36, label %34

34:                                               ; preds = %3
  %35 = load ptr, ptr %6, align 8, !tbaa !3
  call void @_ZL11inv_prepareP8PJconstsR8PJ_COORD(ptr noundef %35, ptr noundef nonnull align 8 dereferenceable(32) %7)
  br label %36

36:                                               ; preds = %34, %3
  %37 = getelementptr inbounds [4 x double], ptr %7, i64 0, i64 0
  %38 = load double, ptr %37, align 8, !tbaa !65
  %39 = fcmp oeq double 0x7FF0000000000000, %38
  br i1 %39, label %40, label %41

40:                                               ; preds = %36
  call void @llvm.lifetime.start.p0(i64 32, ptr %9) #7
  call void @_Z16proj_coord_errorv(ptr dead_on_unwind writable sret(%union.PJ_COORD) align 8 %9)
  call void @llvm.memcpy.p0.p0.i64(ptr align 8 %4, ptr align 8 %9, i64 16, i1 false), !tbaa.struct !8
  call void @llvm.lifetime.end.p0(i64 32, ptr %9) #7
  store i32 1, ptr %10, align 4
  br label %100

41:                                               ; preds = %36
  %42 = load ptr, ptr %6, align 8, !tbaa !3
  %43 = getelementptr inbounds nuw %struct.PJconsts, ptr %42, i32 0, i32 14
  %44 = load ptr, ptr %43, align 8, !tbaa !66
  %45 = icmp ne ptr %44, null
  br i1 %45, label %46, label %60

46:                                               ; preds = %41
  call void @llvm.lifetime.start.p0(i64 16, ptr %11) #7
  %47 = load ptr, ptr %6, align 8, !tbaa !3
  %48 = getelementptr inbounds nuw %struct.PJconsts, ptr %47, i32 0, i32 14
  %49 = load ptr, ptr %48, align 8, !tbaa !66
  call void @llvm.memcpy.p0.p0.i64(ptr align 8 %12, ptr align 8 %7, i64 16, i1 false), !tbaa.struct !8
  %50 = load ptr, ptr %6, align 8, !tbaa !3
  %51 = getelementptr inbounds nuw { double, double }, ptr %12, i32 0, i32 0
  %52 = load double, ptr %51, align 8
  %53 = getelementptr inbounds nuw { double, double }, ptr %12, i32 0, i32 1
  %54 = load double, ptr %53, align 8
  %55 = call { double, double } %49(double %52, double %54, ptr noundef %50)
  %56 = getelementptr inbounds nuw { double, double }, ptr %11, i32 0, i32 0
  %57 = extractvalue { double, double } %55, 0
  store double %57, ptr %56, align 8
  %58 = getelementptr inbounds nuw { double, double }, ptr %11, i32 0, i32 1
  %59 = extractvalue { double, double } %55, 1
  store double %59, ptr %58, align 8
  call void @llvm.memcpy.p0.p0.i64(ptr align 8 %7, ptr align 8 %11, i64 16, i1 false), !tbaa.struct !8
  call void @llvm.lifetime.end.p0(i64 16, ptr %11) #7
  br label %85

60:                                               ; preds = %41
  %61 = load ptr, ptr %6, align 8, !tbaa !3
  %62 = getelementptr inbounds nuw %struct.PJconsts, ptr %61, i32 0, i32 16
  %63 = load ptr, ptr %62, align 8, !tbaa !67
  %64 = icmp ne ptr %63, null
  br i1 %64, label %65, label %70

65:                                               ; preds = %60
  call void @llvm.lifetime.start.p0(i64 24, ptr %13) #7
  %66 = load ptr, ptr %6, align 8, !tbaa !3
  %67 = getelementptr inbounds nuw %struct.PJconsts, ptr %66, i32 0, i32 16
  %68 = load ptr, ptr %67, align 8, !tbaa !67
  call void @llvm.memcpy.p0.p0.i64(ptr align 8 %14, ptr align 8 %7, i64 24, i1 false), !tbaa.struct !68
  %69 = load ptr, ptr %6, align 8, !tbaa !3
  call void %68(ptr dead_on_unwind writable sret(%struct.PJ_LPZ) align 8 %13, ptr noundef byval(%struct.PJ_XYZ) align 8 %14, ptr noundef %69)
  call void @llvm.memcpy.p0.p0.i64(ptr align 8 %7, ptr align 8 %13, i64 24, i1 false), !tbaa.struct !68
  call void @llvm.lifetime.end.p0(i64 24, ptr %13) #7
  br label %84

70:                                               ; preds = %60
  %71 = load ptr, ptr %6, align 8, !tbaa !3
  %72 = getelementptr inbounds nuw %struct.PJconsts, ptr %71, i32 0, i32 18
  %73 = load ptr, ptr %72, align 8, !tbaa !69
  %74 = icmp ne ptr %73, null
  br i1 %74, label %75, label %80

75:                                               ; preds = %70
  %76 = load ptr, ptr %6, align 8, !tbaa !3
  %77 = getelementptr inbounds nuw %struct.PJconsts, ptr %76, i32 0, i32 18
  %78 = load ptr, ptr %77, align 8, !tbaa !69
  %79 = load ptr, ptr %6, align 8, !tbaa !3
  call void %78(ptr noundef nonnull align 8 dereferenceable(32) %7, ptr noundef %79)
  br label %83

80:                                               ; preds = %70
  %81 = load ptr, ptr %6, align 8, !tbaa !3
  %82 = call i32 @proj_errno_set(ptr noundef %81, i32 noundef 4098)
  call void @llvm.lifetime.start.p0(i64 32, ptr %15) #7
  call void @_Z16proj_coord_errorv(ptr dead_on_unwind writable sret(%union.PJ_COORD) align 8 %15)
  call void @llvm.memcpy.p0.p0.i64(ptr align 8 %4, ptr align 8 %15, i64 16, i1 false), !tbaa.struct !8
  call void @llvm.lifetime.end.p0(i64 32, ptr %15) #7
  store i32 1, ptr %10, align 4
  br label %100

83:                                               ; preds = %75
  br label %84

84:                                               ; preds = %83, %65
  br label %85

85:                                               ; preds = %84, %46
  %86 = getelementptr inbounds [4 x double], ptr %7, i64 0, i64 0
  %87 = load double, ptr %86, align 8, !tbaa !65
  %88 = fcmp oeq double 0x7FF0000000000000, %87
  br i1 %88, label %89, label %90

89:                                               ; preds = %85
  call void @llvm.lifetime.start.p0(i64 32, ptr %16) #7
  call void @_Z16proj_coord_errorv(ptr dead_on_unwind writable sret(%union.PJ_COORD) align 8 %16)
  call void @llvm.memcpy.p0.p0.i64(ptr align 8 %4, ptr align 8 %16, i64 16, i1 false), !tbaa.struct !8
  call void @llvm.lifetime.end.p0(i64 32, ptr %16) #7
  store i32 1, ptr %10, align 4
  br label %100

90:                                               ; preds = %85
  %91 = load ptr, ptr %6, align 8, !tbaa !3
  %92 = getelementptr inbounds nuw %struct.PJconsts, ptr %91, i32 0, i32 51
  %93 = load i32, ptr %92, align 8, !tbaa !70
  %94 = icmp ne i32 %93, 0
  br i1 %94, label %97, label %95

95:                                               ; preds = %90
  %96 = load ptr, ptr %6, align 8, !tbaa !3
  call void @_ZL12inv_finalizeP8PJconstsR8PJ_COORD(ptr noundef %96, ptr noundef nonnull align 8 dereferenceable(32) %7)
  br label %97

97:                                               ; preds = %95, %90
  call void @llvm.lifetime.start.p0(i64 32, ptr %17) #7
  %98 = load ptr, ptr %6, align 8, !tbaa !3
  call void @llvm.memcpy.p0.p0.i64(ptr align 8 %18, ptr align 8 %7, i64 32, i1 false), !tbaa.struct !71
  %99 = load i32, ptr %8, align 4, !tbaa !63
  call void @_ZL14error_or_coordP8PJconsts8PJ_COORDi(ptr dead_on_unwind writable sret(%union.PJ_COORD) align 8 %17, ptr noundef %98, ptr noundef byval(%union.PJ_COORD) align 8 %18, i32 noundef %99)
  call void @llvm.memcpy.p0.p0.i64(ptr align 8 %4, ptr align 8 %17, i64 16, i1 false), !tbaa.struct !8
  call void @llvm.lifetime.end.p0(i64 32, ptr %17) #7
  store i32 1, ptr %10, align 4
  br label %100

100:                                              ; preds = %97, %89, %80, %40
  call void @llvm.lifetime.end.p0(i64 4, ptr %8) #7
  call void @llvm.lifetime.end.p0(i64 32, ptr %7) #7
  %101 = load { double, double }, ptr %4, align 8
  ret { double, double } %101
}