; Function Attrs: mustprogress uwtable
define { double, double } @_Z6pj_inv5PJ_XYP8PJconsts(double %0, double %1, ptr noundef %2) local_unnamed_addr #0 {
  %4 = alloca %union.PJ_COORD, align 8
  %5 = alloca %union.PJ_COORD, align 8
  %6 = alloca %struct.PJ_LPZ, align 8
  %7 = alloca %union.PJ_COORD, align 8
  %8 = alloca %union.PJ_COORD, align 8
  %9 = alloca %union.PJ_COORD, align 8
  call void @llvm.lifetime.start.p0(i64 32, ptr nonnull %4) #6
  %10 = getelementptr inbounds nuw i8, ptr %4, i64 16
  call void @llvm.memset.p0.i64(ptr noundef nonnull align 8 dereferenceable(16) %10, i8 0, i64 16, i1 false)
  store double %0, ptr %4, align 8, !tbaa !3
  %.sroa.219.0..sroa_idx = getelementptr inbounds nuw i8, ptr %4, i64 8
  store double %1, ptr %.sroa.219.0..sroa_idx, align 8, !tbaa !3
  %11 = load ptr, ptr %2, align 8, !tbaa !7
  %12 = getelementptr inbounds nuw i8, ptr %11, i64 32
  %13 = load i32, ptr %12, align 8, !tbaa !37
  store i32 0, ptr %12, align 8, !tbaa !37
  %14 = getelementptr inbounds nuw i8, ptr %2, i64 372
  %15 = load i32, ptr %14, align 4, !tbaa !61
  %.not = icmp eq i32 %15, 0
  br i1 %.not, label %16, label %17

16:                                               ; preds = %3
  call fastcc void @_ZL11inv_prepareP8PJconstsR8PJ_COORD(ptr noundef nonnull %2, ptr noundef nonnull align 8 dereferenceable(32) %4)
  %.pre = load double, ptr %4, align 8, !tbaa !62
  br label %17

17:                                               ; preds = %16, %3
  %18 = phi double [ %.pre, %16 ], [ %0, %3 ]
  %19 = fcmp oeq double %18, 0x7FF0000000000000
  br i1 %19, label %20, label %21

20:                                               ; preds = %17
  call void @llvm.lifetime.start.p0(i64 32, ptr nonnull %5) #6
  call void @_Z16proj_coord_errorv(ptr dead_on_unwind nonnull writable sret(%union.PJ_COORD) align 8 %5)
  %.sroa.020.0.copyload = load double, ptr %5, align 8, !tbaa !3
  %.sroa.5.0..sroa_idx = getelementptr inbounds nuw i8, ptr %5, i64 8
  %.sroa.5.0.copyload = load double, ptr %.sroa.5.0..sroa_idx, align 8, !tbaa !3
  call void @llvm.lifetime.end.p0(i64 32, ptr nonnull %5) #6
  br label %51

21:                                               ; preds = %17
  %22 = getelementptr inbounds nuw i8, ptr %2, i64 112
  %23 = load ptr, ptr %22, align 8, !tbaa !63
  %.not32 = icmp eq ptr %23, null
  br i1 %.not32, label %28, label %24

24:                                               ; preds = %21
  %.sroa.2.0.copyload = load double, ptr %.sroa.219.0..sroa_idx, align 8, !tbaa !3
  %25 = tail call { double, double } %23(double %18, double %.sroa.2.0.copyload, ptr noundef nonnull %2)
  %26 = extractvalue { double, double } %25, 0
  %27 = extractvalue { double, double } %25, 1
  store double %26, ptr %4, align 8, !tbaa !3
  store double %27, ptr %.sroa.219.0..sroa_idx, align 8, !tbaa !3
  br label %38

28:                                               ; preds = %21
  %29 = getelementptr inbounds nuw i8, ptr %2, i64 128
  %30 = load ptr, ptr %29, align 8, !tbaa !64
  %.not33 = icmp eq ptr %30, null
  br i1 %.not33, label %32, label %31

31:                                               ; preds = %28
  call void @llvm.lifetime.start.p0(i64 24, ptr nonnull %6) #6
  call void %30(ptr dead_on_unwind nonnull writable sret(%struct.PJ_LPZ) align 8 %6, ptr noundef nonnull byval(%struct.PJ_XYZ) align 8 %4, ptr noundef nonnull %2)
  call void @llvm.memcpy.p0.p0.i64(ptr noundef nonnull align 8 dereferenceable(24) %4, ptr noundef nonnull align 8 dereferenceable(24) %6, i64 24, i1 false), !tbaa.struct !65
  call void @llvm.lifetime.end.p0(i64 24, ptr nonnull %6) #6
  br label %thread-pre-split

32:                                               ; preds = %28
  %33 = getelementptr inbounds nuw i8, ptr %2, i64 144
  %34 = load ptr, ptr %33, align 8, !tbaa !66
  %.not34 = icmp eq ptr %34, null
  br i1 %.not34, label %36, label %35

35:                                               ; preds = %32
  call void %34(ptr noundef nonnull align 8 dereferenceable(32) %4, ptr noundef nonnull %2)
  br label %thread-pre-split

36:                                               ; preds = %32
  %37 = tail call i32 @proj_errno_set(ptr noundef nonnull %2, i32 noundef 4098)
  call void @llvm.lifetime.start.p0(i64 32, ptr nonnull %7) #6
  call void @_Z16proj_coord_errorv(ptr dead_on_unwind nonnull writable sret(%union.PJ_COORD) align 8 %7)
  %.sroa.020.0.copyload21 = load double, ptr %7, align 8, !tbaa !3
  %.sroa.5.0..sroa_idx24 = getelementptr inbounds nuw i8, ptr %7, i64 8
  %.sroa.5.0.copyload25 = load double, ptr %.sroa.5.0..sroa_idx24, align 8, !tbaa !3
  call void @llvm.lifetime.end.p0(i64 32, ptr nonnull %7) #6
  br label %51

thread-pre-split:                                 ; preds = %35, %31
  %.pr = load double, ptr %4, align 8, !tbaa !62
  br label %38

38:                                               ; preds = %thread-pre-split, %24
  %39 = phi double [ %.pr, %thread-pre-split ], [ %26, %24 ]
  %40 = fcmp oeq double %39, 0x7FF0000000000000
  br i1 %40, label %41, label %42

41:                                               ; preds = %38
  call void @llvm.lifetime.start.p0(i64 32, ptr nonnull %8) #6
  call void @_Z16proj_coord_errorv(ptr dead_on_unwind nonnull writable sret(%union.PJ_COORD) align 8 %8)
  %.sroa.020.0.copyload22 = load double, ptr %8, align 8, !tbaa !3
  %.sroa.5.0..sroa_idx26 = getelementptr inbounds nuw i8, ptr %8, i64 8
  %.sroa.5.0.copyload27 = load double, ptr %.sroa.5.0..sroa_idx26, align 8, !tbaa !3
  call void @llvm.lifetime.end.p0(i64 32, ptr nonnull %8) #6
  br label %51

42:                                               ; preds = %38
  %43 = getelementptr inbounds nuw i8, ptr %2, i64 376
  %44 = load i32, ptr %43, align 8, !tbaa !67
  %.not35 = icmp eq i32 %44, 0
  br i1 %.not35, label %45, label %46

45:                                               ; preds = %42
  call fastcc void @_ZL12inv_finalizeP8PJconstsR8PJ_COORD(ptr noundef nonnull %2, ptr noundef nonnull align 8 dereferenceable(32) %4)
  br label %46

46:                                               ; preds = %45, %42
  call void @llvm.lifetime.start.p0(i64 32, ptr nonnull %9) #6
  %.val = load ptr, ptr %2, align 8, !tbaa !7
  %47 = getelementptr inbounds nuw i8, ptr %.val, i64 32
  %48 = load i32, ptr %47, align 8, !tbaa !37, !noalias !68
  %.not.i = icmp eq i32 %48, 0
  br i1 %.not.i, label %50, label %49

49:                                               ; preds = %46
  call void @_Z16proj_coord_errorv(ptr dead_on_unwind nonnull writable sret(%union.PJ_COORD) align 8 %9)
  br label %_ZL14error_or_coordP8PJconsts8PJ_COORDi.exit

50:                                               ; preds = %46
  store i32 %13, ptr %47, align 8, !tbaa !37, !noalias !68
  call void @llvm.memcpy.p0.p0.i64(ptr noundef nonnull align 8 dereferenceable(32) %9, ptr noundef nonnull align 8 dereferenceable(32) %4, i64 32, i1 false)
  br label %_ZL14error_or_coordP8PJconsts8PJ_COORDi.exit

_ZL14error_or_coordP8PJconsts8PJ_COORDi.exit:     ; preds = %49, %50
  %.sroa.020.0.copyload23 = load double, ptr %9, align 8, !tbaa !3
  %.sroa.5.0..sroa_idx28 = getelementptr inbounds nuw i8, ptr %9, i64 8
  %.sroa.5.0.copyload29 = load double, ptr %.sroa.5.0..sroa_idx28, align 8, !tbaa !3
  call void @llvm.lifetime.end.p0(i64 32, ptr nonnull %9) #6
  br label %51

51:                                               ; preds = %_ZL14error_or_coordP8PJconsts8PJ_COORDi.exit, %41, %36, %20
  %.sroa.020.0 = phi double [ %.sroa.020.0.copyload, %20 ], [ %.sroa.020.0.copyload22, %41 ], [ %.sroa.020.0.copyload23, %_ZL14error_or_coordP8PJconsts8PJ_COORDi.exit ], [ %.sroa.020.0.copyload21, %36 ]
  %.sroa.5.0 = phi double [ %.sroa.5.0.copyload, %20 ], [ %.sroa.5.0.copyload27, %41 ], [ %.sroa.5.0.copyload29, %_ZL14error_or_coordP8PJconsts8PJ_COORDi.exit ], [ %.sroa.5.0.copyload25, %36 ]
  call void @llvm.lifetime.end.p0(i64 32, ptr nonnull %4) #6
  %.fca.0.insert = insertvalue { double, double } poison, double %.sroa.020.0, 0
  %.fca.1.insert = insertvalue { double, double } %.fca.0.insert, double %.sroa.5.0, 1
  ret { double, double } %.fca.1.insert
}